(lp0
(L-1711283L
S'Jersey'
p1
S'4'
p2
F119617290.188035
L1L
tp3
a(L-81941L
S'Bath & North East Somerset'
p4
S'6'
p5
F350089767.967034
L1L
tp6
a(L-161640L
S'Peterborough'
p7
g5
F342278846.162
L1L
tp8
a(L-103776L
S'Vale of Glamorgan'
p9
g5
F340729181.276676
L1L
tp10
a(L-1920842L
S'Falkirk Council'
p11
g5
F313590226.462432
L1L
tp12
a(L-172504L
S'Milton Keynes'
p13
g5
F307803470.83977
L1L
tp14
a(L-167058L
S'Telford and Wrekin'
p15
g5
F289306849.118029
L1L
tp16
a(L-176448L
S'Warwick District'
p17
g5
F281927842.569031
L1L
tp18
a(L-2750677L
S'Caerphilly'
p19
g5
F276372595.139407
L1L
tp20
a(L-1920901L
S'City of Edinburgh'
p21
g5
F271881518.770862
L1L
tp22
a(L-134353L
S'York'
p23
g5
F271021570.350455
L1L
tp24
a(L-1921240L
S'Renfrewshire'
p25
g5
F268457404.563411
L1L
tp26
a(L-158019L
S'Medway'
p27
g5
F267846862.475347
L1L
tp28
a(L-162378L
S'Birmingham'
p29
g5
F266826471.138037
L1L
tp30
a(L-99774L
S'Bridgend'
p31
g5
F255157965.893643
L1L
tp32
a(L-150989L
S'Redcar and Cleveland'
p33
g5
F247289193.754098
L1L
tp34
a(L-57539L
S'City of Bristol'
p35
g5
F235803338.608887
L1L
tp36
a(L-110212L
S'Swindon'
p37
g5
F229430215.614702
L1L
tp38
a(L-335184L
S'Newport'
p39
g5
F217142818.865943
L1L
tp40
a(L220534615L
S'Yell'
p41
g5
F209007659.264549
L1L
tp42
a(L-150994L
S'Stockton-on-Tees'
p43
g5
F208937752.413348
L1L
tp44
a(L-173023L
S'Sefton'
p45
g5
F203971341.754679
L1L
tp46
a(L-69361L
S'North East Lincolnshire'
p47
g5
F202785314.037744
L1L
tp48
a(L-111014L
S'Windsor and Maidenhead'
p49
g5
F197837201.287281
L1L
tp50
a(L-153377L
S'Darlington'
p51
g5
F196546859.050738
L1L
tp52
a(L-1900654L
S'Aberdeen City'
p53
g5
F186149431.320506
L1L
tp54
a(L-76521L
S'Thurrock'
p55
g5
F183676832.421789
L1L
tp56
a(L-1920242L
S'West Dunbartonshire'
p57
g5
F181941530.670775
L1L
tp58
a(L-147278L
S'Warrington'
p59
g5
F181719038.025327
L1L
tp60
a(L-114311L
S'Wokingham'
p61
g5
F178418431.931356
L1L
tp62
a(L-162373L
S'Solihull'
p63
g5
F177850479.453347
L1L
tp64
a(L-1906767L
S'Glasgow City'
p65
g5
F175660717.737069
L1L
tp66
a(L-1920660L
S'East Dunbartonshire'
p67
g5
F173715065.442234
L1L
tp68
a(L-1921238L
S'East Renfrewshire'
p69
g5
F173063863.515014
L1L
tp70
a(L-1921239L
S'Inverclyde'
p71
g5
F172784525.851637
L1L
tp72
a(L-1920841L
S'Clackmannanshire'
p73
g5
F163181668.680386
L1L
tp74
a(L-1625787L
S'Cardiff'
p75
g5
F149025275.693084
L1L
tp76
a(L-148780L
S'Blackburn with Darwen'
p77
g5
F136529525.118003
L1L
tp78
a(L4569205L
S'Hoy'
p79
g5
F132393194.331423
L1L
tp80
a(L-2750460L
S'Torfaen'
p81
g5
F125794570.655227
L1L
tp82
a(L-1061146L
S'Middle'
p83
g5
F120926899.778678
L1L
tp84
a(L-161649L
S'Torbay'
p85
g5
F118782925.373026
L1L
tp86
a(L-1967079L
S'East Dorset'
p87
S'8'
p88
F352673677.323101
L1L
tp89
a(L-173773L
S'Rugby'
p90
g88
F352411714.213166
L1L
tp91
a(L-76493L
S'Colchester'
p92
g88
F345270771.612941
L1L
tp93
a(L-108786L
S'Waverley'
p94
g88
F344035513.954705
L1L
tp95
a(L-52189L
S'Chelmsford'
p96
g88
F341833081.377627
L1L
tp97
a(L-76512L
S'Epping Forest'
p98
g88
F337794215.593815
L1L
tp99
a(L-142627L
S'South Derbyshire'
p100
g88
F335989224.378784
L1L
tp101
a(L-109960L
S'Wakefield'
p102
g88
F335434540.792634
L1L
tp103
a(L-2778993L
S'Mid Sussex'
p104
g88
F332893331.885244
L1L
tp105
a(L-2212730L
S'Tunbridge Wells'
p106
g88
F330099903.860853
L1L
tp107
a(L-148604L
S'Wyre'
p108
g88
F328874175.9448
L1L
tp109
a(L-168501L
S'Lichfield'
p110
g88
F328827282.320877
L1L
tp111
a(L-106964L
S'Barnsley'
p112
g88
F327840505.603341
L1L
tp113
a(L-1908836L
S'Wycombe'
p114
g88
F323567462.144329
L1L
tp115
a(L-448590L
S'Canterbury'
p116
g88
F319550980.73318
L1L
tp117
a(L-1481934L
S'Dover'
p118
g88
F319523566.893534
L1L
tp119
a(L-171999L
S'Hinckley and Bosworth'
p120
g88
F295301805.873246
L1L
tp121
a(L-131295L
S'Lewes'
p122
g88
F293449554.612511
L1L
tp123
a(L-162374L
S'North Warwickshire'
p124
g88
F283346375.666098
L1L
tp125
a(L-106960L
S'Rotherham'
p126
g88
F282615551.663395
L1L
tp127
a(L-172000L
S'North West Leicestershire'
p128
g88
F279128457.937543
L1L
tp129
a(L-172008L
S'Charnwood'
p130
g88
F278096020.44819
L1L
tp131
a(L-108320L
S'North East Derbyshire'
p132
g88
F274612754.827715
L1L
tp133
a(L-108787L
S'Guildford'
p134
g88
F270064749.460569
L1L
tp135
a(L-141905L
S'Amber Valley'
p136
g88
F264511743.336064
L1L
tp137
a(L-76490L
S'Rochford'
p138
g88
F261787797.987484
L1L
tp139
a(L-108792L
S'Mole Valley'
p140
g88
F257449630.465682
L1L
tp141
a(L-162456L
S'Wirral District'
p142
g88
F255610097.905347
L1L
tp143
a(L-113753L
S'Tandridge'
p144
g88
F247338427.264443
L1L
tp145
a(L-2209932L
S'Tonbridge and Malling'
p146
g88
F240075629.035813
L1L
tp147
a(L-310065L
S'Kettering'
p148
g88
F232660531.798183
L1L
tp149
a(L-114663L
S'Arun'
p150
g88
F223735292.089125
L1L
tp151
a(L-1875338L
S'Bromsgrove'
p152
g88
F216251901.47825
L1L
tp153
a(L-127197L
S'Hart'
p154
g88
F214583531.90702
L1L
tp155
a(L-2683586L
S'Dacorum'
p156
g88
F211909385.095206
L1L
tp157
a(L-163551L
S'Newcastle-under-Lyme'
p158
g88
F210027543.581404
L1L
tp159
a(L-148744L
S'Chorley'
p160
g88
F202053397.979893
L1L
tp161
a(L-1908837L
S'Chiltern'
p162
g88
F195891496.970935
L1L
tp163
a(L-1875343L
S'Wyre Forest'
p164
g88
F194819038.266846
L1L
tp165
a(L-146938L
S'Wigan'
p166
g88
F187527842.025867
L1L
tp167
a(L-148600L
S'Fylde'
p168
g88
F181519131.277309
L1L
tp169
a(L-1168547L
S'Great Yarmouth'
p170
g88
F181479788.90182
L1L
tp171
a(L-149122L
S'Pendle'
p172
g88
F167987298.877177
L1L
tp173
a(L-1637026L
S'Wellingborough'
p174
g88
F162503363.88895
L1L
tp175
a(L-2683265L
S'St Albans'
p176
g88
F160646027.552653
L1L
tp177
a(L-108323L
S'Bolsover'
p178
g88
F159785637.86871
L1L
tp179
a(L-146926L
S'Rochdale'
p180
g88
F157292611.478539
L1L
tp181
a(L-76515L
S'Brentwood'
p182
g88
F152550288.719522
L1L
tp183
a(L-152126L
S'London Borough of Bromley'
p184
g88
F149620899.901155
L1L
tp185
a(L-140462L
S'Gateshead'
p186
g88
F143261654.591095
L1L
tp187
a(L-148606L
S'Preston'
p188
g88
F142560855.940285
L1L
tp189
a(L-146925L
S'Oldham'
p190
g88
F141859457.041282
L1L
tp191
a(L-2347277L
S'South Bucks'
p192
g88
F140779815.619518
L1L
tp193
a(L-146937L
S'Bolton'
p194
g88
F139316193.103994
L1L
tp195
a(L-116279L
S'Sunderland'
p196
g88
F139129099.347617
L1L
tp197
a(L-149077L
S'Rossendale'
p198
g88
F136462905.734221
L1L
tp199
a(L-172987L
S'Liverpool'
p200
g88
F133123179.032134
L1L
tp201
a(L-176965L
S'Barrow-in-Furness'
p202
g88
F131318437.217522
L1L
tp203
a(L-162357L
S'Blaby'
p204
g88
F130340790.545371
L1L
tp205
a(L-2679796L
S'Welwyn Hatfield'
p206
g88
F129104010.996599
L1L
tp207
a(L-109949L
S'Reigate and Banstead'
p208
g88
F128775254.503007
L1L
tp209
a(L-146658L
S'Stockport'
p210
g88
F125617155.206967
L1L
tp211
a(L-155494L
S'Gedling'
p212
g88
F119629166.413961
L1L
tp213
a.