(lp0
(L-167058L
S'Telford and Wrekin'
p1
S'6'
p2
F289275542.335387
L1L
tp3
a(L-2750677L
S'Caerphilly'
p4
g2
F276458253.152085
L1L
tp5
a(L-1920901L
S'City of Edinburgh'
p6
g2
F271881389.492182
L1L
tp7
a(L-134353L
S'York'
p8
g2
F270995876.122739
L1L
tp9
a(L-1921240L
S'Renfrewshire'
p10
g2
F268457466.138421
L1L
tp11
a(L-158019L
S'Medway'
p12
g2
F267846937.1729
L1L
tp13
a(L-99774L
S'Bridgend'
p14
g2
F255170135.826597
L1L
tp15
a(L-150989L
S'Redcar and Cleveland'
p16
g2
F247354600.456278
L1L
tp17
a(L-57539L
S'City of Bristol'
p18
g2
F235816681.819764
L1L
tp19
a(L-110212L
S'Swindon'
p20
g2
F229432578.772006
L1L
tp21
a(L-335184L
S'Newport'
p22
g2
F217088878.202066
L1L
tp23
a(L220534615L
S'Yell'
p24
g2
F209151571.814904
L1L
tp25
a(L-150994L
S'Stockton-on-Tees'
p26
g2
F208950842.672787
L1L
tp27
a(L-69361L
S'North East Lincolnshire'
p28
g2
F202785443.208271
L1L
tp29
a(L-111014L
S'Windsor and Maidenhead'
p30
g2
F197790982.609102
L1L
tp31
a(L-153377L
S'Darlington'
p32
g2
F196533321.417128
L1L
tp33
a(L-1900654L
S'Aberdeen City'
p34
g2
F186151171.93211
L1L
tp35
a(L-76521L
S'Thurrock'
p36
g2
F183677136.169005
L1L
tp37
a(L-1920242L
S'West Dunbartonshire'
p38
g2
F181940915.371314
L1L
tp39
a(L-147278L
S'Warrington'
p40
g2
F181726284.931705
L1L
tp41
a(L-114311L
S'Wokingham'
p42
g2
F178431076.276688
L1L
tp43
a(L-131295L
S'Lewes'
p44
S'8'
p45
F293399479.294635
L1L
tp46
a(L-162374L
S'North Warwickshire'
p47
g45
F283366279.80602
L1L
tp48
a(L-106960L
S'Rotherham'
p49
g45
F282565642.378134
L1L
tp50
a(L-176448L
S'Warwick District'
p51
g45
F282066672.441212
L1L
tp52
a(L-172000L
S'North West Leicestershire'
p53
g45
F279130510.227571
L1L
tp54
a(L-172008L
S'Charnwood'
p55
g45
F278090451.857387
L1L
tp56
a(L-108320L
S'North East Derbyshire'
p57
g45
F276032608.795262
L1L
tp58
a(L-108787L
S'Guildford'
p59
g45
F270094637.782829
L1L
tp60
a(L-162378L
S'Birmingham'
p61
g45
F266908177.679012
L1L
tp62
a(L-141905L
S'Amber Valley'
p63
g45
F264512005.786925
L1L
tp64
a(L-76490L
S'Rochford'
p65
g45
F261788394.270073
L1L
tp66
a(L-108792L
S'Mole Valley'
p67
g45
F257450276.6608
L1L
tp68
a(L-162456L
S'Wirral District'
p69
g45
F255600675.955483
L1L
tp70
a(L-113753L
S'Tandridge'
p71
g45
F247351590.094429
L1L
tp72
a(L-2209932L
S'Tonbridge and Malling'
p73
g45
F240075587.036465
L1L
tp74
a(L-310065L
S'Kettering'
p75
g45
F232686159.475858
L1L
tp76
a(L-114663L
S'Arun'
p77
g45
F223734335.873927
L1L
tp78
a(L-1875338L
S'Bromsgrove'
p79
g45
F216248458.324837
L1L
tp80
a(L-127197L
S'Hart'
p81
g45
F214599144.885235
L1L
tp82
a(L-2683586L
S'Dacorum'
p83
g45
F211519094.906261
L1L
tp84
a(L-163551L
S'Newcastle-under-Lyme'
p85
g45
F209702010.709012
L1L
tp86
a(L-173023L
S'Sefton'
p87
g45
F203972441.380526
L1L
tp88
a(L-148744L
S'Chorley'
p89
g45
F202058570.226634
L1L
tp90
a(L-1908837L
S'Chiltern'
p91
g45
F195887060.073293
L1L
tp92
a(L-1875343L
S'Wyre Forest'
p93
g45
F194820600.80482
L1L
tp94
a(L-146938L
S'Wigan'
p95
g45
F187542547.926318
L1L
tp96
a(L-148600L
S'Fylde'
p97
g45
F181496551.003826
L1L
tp98
a(L-1168547L
S'Great Yarmouth'
p99
g45
F181480115.16285
L1L
tp100
a(L-162373L
S'Solihull'
p101
g45
F177838415.095578
L1L
tp102
a.